target datalayout = "e-m:e-p270:32:32-p271:32:32-p272:64:64-i64:64-i128:128-f80:128-n8:16:32:64-S128"
target triple = "x86_64-pc-linux-gnu"

%struct.resv_desc_msg = type { ptr, ptr, ptr, i32, i32, i64, ptr, i64, ptr, ptr, ptr, i32, ptr, i32, ptr, ptr, i32, i64, i64, ptr, ptr }

@top_suffix = dso_local global i32 0, align 4
@.str.132 = private unnamed_addr constant [5 x i8] c"resv\00", align 1
@.str.133 = private unnamed_addr constant [8 x i8] c"%.*s_%d\00", align 1

; Function Attrs: nounwind uwtable
define internal void @_generate_resv_name(ptr noundef %0) #0 {
  %2 = alloca ptr, align 8
  %3 = alloca ptr, align 8
  %4 = alloca ptr, align 8
  %5 = alloca ptr, align 8
  %6 = alloca i32, align 4
  store ptr %0, ptr %2, align 8
  call void @llvm.lifetime.start.p0(i64 8, ptr %3) #10
  call void @llvm.lifetime.start.p0(i64 8, ptr %4) #10
  call void @llvm.lifetime.start.p0(i64 8, ptr %5) #10
  call void @llvm.lifetime.start.p0(i64 4, ptr %6) #10
  %7 = load ptr, ptr %2, align 8
  %8 = getelementptr inbounds nuw %struct.resv_desc_msg, ptr %7, i32 0, i32 0
  %9 = load ptr, ptr %8, align 8
  %10 = icmp ne ptr %9, null
  br i1 %10, label %11, label %23

11:                                               ; preds = %1
  %12 = load ptr, ptr %2, align 8
  %13 = getelementptr inbounds nuw %struct.resv_desc_msg, ptr %12, i32 0, i32 0
  %14 = load ptr, ptr %13, align 8
  %15 = getelementptr inbounds i8, ptr %14, i64 0
  %16 = load i8, ptr %15, align 1
  %17 = sext i8 %16 to i32
  %18 = icmp ne i32 %17, 0
  br i1 %18, label %19, label %23

19:                                               ; preds = %11
  %20 = load ptr, ptr %2, align 8
  %21 = getelementptr inbounds nuw %struct.resv_desc_msg, ptr %20, i32 0, i32 0
  %22 = load ptr, ptr %21, align 8
  store ptr %22, ptr %3, align 8
  br label %60

23:                                               ; preds = %11, %1
  %24 = load ptr, ptr %2, align 8
  %25 = getelementptr inbounds nuw %struct.resv_desc_msg, ptr %24, i32 0, i32 20
  %26 = load ptr, ptr %25, align 8
  %27 = icmp ne ptr %26, null
  br i1 %27, label %28, label %40

28:                                               ; preds = %23
  %29 = load ptr, ptr %2, align 8
  %30 = getelementptr inbounds nuw %struct.resv_desc_msg, ptr %29, i32 0, i32 20
  %31 = load ptr, ptr %30, align 8
  %32 = getelementptr inbounds i8, ptr %31, i64 0
  %33 = load i8, ptr %32, align 1
  %34 = sext i8 %33 to i32
  %35 = icmp ne i32 %34, 0
  br i1 %35, label %36, label %40

36:                                               ; preds = %28
  %37 = load ptr, ptr %2, align 8
  %38 = getelementptr inbounds nuw %struct.resv_desc_msg, ptr %37, i32 0, i32 20
  %39 = load ptr, ptr %38, align 8
  store ptr %39, ptr %3, align 8
  br label %59

40:                                               ; preds = %28, %23
  %41 = load ptr, ptr %2, align 8
  %42 = getelementptr inbounds nuw %struct.resv_desc_msg, ptr %41, i32 0, i32 8
  %43 = load ptr, ptr %42, align 8
  %44 = icmp ne ptr %43, null
  br i1 %44, label %45, label %57

45:                                               ; preds = %40
  %46 = load ptr, ptr %2, align 8
  %47 = getelementptr inbounds nuw %struct.resv_desc_msg, ptr %46, i32 0, i32 8
  %48 = load ptr, ptr %47, align 8
  %49 = getelementptr inbounds i8, ptr %48, i64 0
  %50 = load i8, ptr %49, align 1
  %51 = sext i8 %50 to i32
  %52 = icmp ne i32 %51, 0
  br i1 %52, label %53, label %57

53:                                               ; preds = %45
  %54 = load ptr, ptr %2, align 8
  %55 = getelementptr inbounds nuw %struct.resv_desc_msg, ptr %54, i32 0, i32 8
  %56 = load ptr, ptr %55, align 8
  store ptr %56, ptr %3, align 8
  br label %58

57:                                               ; preds = %45, %40
  store ptr @.str.132, ptr %3, align 8
  br label %58

58:                                               ; preds = %57, %53
  br label %59

59:                                               ; preds = %58, %36
  br label %60

60:                                               ; preds = %59, %19
  %61 = load ptr, ptr %3, align 8
  %62 = getelementptr inbounds i8, ptr %61, i64 0
  %63 = load i8, ptr %62, align 1
  %64 = sext i8 %63 to i32
  %65 = icmp eq i32 %64, 45
  br i1 %65, label %66, label %69

66:                                               ; preds = %60
  %67 = load ptr, ptr %3, align 8
  %68 = getelementptr inbounds nuw i8, ptr %67, i32 1
  store ptr %68, ptr %3, align 8
  br label %69

69:                                               ; preds = %66, %60
  %70 = load ptr, ptr %3, align 8
  %71 = call ptr @strchr(ptr noundef %70, i32 noundef 44) #11
  store ptr %71, ptr %5, align 8
  %72 = load ptr, ptr %5, align 8
  %73 = icmp ne ptr %72, null
  br i1 %73, label %74, label %81

74:                                               ; preds = %69
  %75 = load ptr, ptr %5, align 8
  %76 = load ptr, ptr %3, align 8
  %77 = ptrtoint ptr %75 to i64
  %78 = ptrtoint ptr %76 to i64
  %79 = sub i64 %77, %78
  %80 = trunc i64 %79 to i32
  store i32 %80, ptr %6, align 4
  br label %85

81:                                               ; preds = %69
  %82 = load ptr, ptr %3, align 8
  %83 = call i64 @strlen(ptr noundef %82) #11
  %84 = trunc i64 %83 to i32
  store i32 %84, ptr %6, align 4
  br label %85

85:                                               ; preds = %81, %74
  %86 = load i32, ptr %6, align 4
  %87 = load ptr, ptr %3, align 8
  %88 = load i32, ptr @top_suffix, align 4
  %89 = call ptr (ptr, ...) @xstrdup_printf(ptr noundef @.str.133, i32 noundef %86, ptr noundef %87, i32 noundef %88)
  store ptr %89, ptr %4, align 8
  %90 = load ptr, ptr %2, align 8
  %91 = getelementptr inbounds nuw %struct.resv_desc_msg, ptr %90, i32 0, i32 12
  call void @slurm_xfree(ptr noundef %91)
  %92 = load ptr, ptr %4, align 8
  %93 = load ptr, ptr %2, align 8
  %94 = getelementptr inbounds nuw %struct.resv_desc_msg, ptr %93, i32 0, i32 12
  store ptr %92, ptr %94, align 8
  call void @llvm.lifetime.end.p0(i64 4, ptr %6) #10
  call void @llvm.lifetime.end.p0(i64 8, ptr %5) #10
  call void @llvm.lifetime.end.p0(i64 8, ptr %4) #10
  call void @llvm.lifetime.end.p0(i64 8, ptr %3) #10
  ret void
}