; Function Attrs: nounwind uwtable
define internal fastcc void @_generate_resv_name(ptr noundef %0) unnamed_addr #0 {
  %2 = load ptr, ptr %0, align 8
  %.not = icmp eq ptr %2, null
  br i1 %.not, label %5, label %3

3:                                                ; preds = %1
  %4 = load i8, ptr %2, align 1
  %.not25 = icmp eq i8 %4, 0
  br i1 %.not25, label %5, label %16

5:                                                ; preds = %3, %1
  %6 = getelementptr inbounds nuw i8, ptr %0, i64 152
  %7 = load ptr, ptr %6, align 8
  %.not26 = icmp eq ptr %7, null
  br i1 %.not26, label %10, label %8

8:                                                ; preds = %5
  %9 = load i8, ptr %7, align 1
  %.not27 = icmp eq i8 %9, 0
  br i1 %.not27, label %10, label %16

10:                                               ; preds = %8, %5
  %11 = getelementptr inbounds nuw i8, ptr %0, i64 56
  %12 = load ptr, ptr %11, align 8
  %.not28 = icmp eq ptr %12, null
  br i1 %.not28, label %15, label %13

13:                                               ; preds = %10
  %14 = load i8, ptr %12, align 1
  %.not29 = icmp eq i8 %14, 0
  br i1 %.not29, label %15, label %16

15:                                               ; preds = %13, %10
  br label %16

16:                                               ; preds = %13, %8, %3, %15
  %17 = phi i8 [ 114, %15 ], [ %4, %3 ], [ %9, %8 ], [ %14, %13 ]
  %.020 = phi ptr [ @.str.132, %15 ], [ %2, %3 ], [ %7, %8 ], [ %12, %13 ]
  %18 = icmp eq i8 %17, 45
  %spec.select.idx = zext i1 %18 to i64
  %spec.select = getelementptr inbounds nuw i8, ptr %.020, i64 %spec.select.idx
  %19 = tail call ptr @strchr(ptr noundef nonnull dereferenceable(1) %spec.select, i32 noundef 44) #20
  %.not30 = icmp eq ptr %19, null
  br i1 %.not30, label %24, label %20

20:                                               ; preds = %16
  %21 = ptrtoint ptr %19 to i64
  %22 = ptrtoint ptr %spec.select to i64
  %23 = sub i64 %21, %22
  br label %26

24:                                               ; preds = %16
  %25 = tail call i64 @strlen(ptr noundef nonnull dereferenceable(1) %spec.select) #20
  br label %26

26:                                               ; preds = %24, %20
  %.0.in = phi i64 [ %23, %20 ], [ %25, %24 ]
  %.0 = trunc i64 %.0.in to i32
  %27 = load i32, ptr @top_suffix, align 4
  %28 = tail call ptr (ptr, ...) @xstrdup_printf(ptr noundef nonnull @.str.133, i32 noundef %.0, ptr noundef nonnull %spec.select, i32 noundef %27) #19
  %29 = getelementptr inbounds nuw i8, ptr %0, i64 88
  tail call void @slurm_xfree(ptr noundef nonnull %29) #19
  store ptr %28, ptr %29, align 8
  ret void
}